target datalayout = "e-m:e-p270:32:32-p271:32:32-p272:64:64-i64:64-i128:128-f80:128-n8:16:32:64-S128"
target triple = "x86_64-pc-linux-gnu"

%"class.pxrInternal_v0_24__pxrReserved__::TfFunctionRef.31" = type { ptr, ptr }
%"class.pxrInternal_v0_24__pxrReserved__::TfFunctionRef" = type { ptr, ptr }
%"class.pxrInternal_v0_24__pxrReserved__::TfFunctionRef.30" = type { ptr, ptr }
%"class.pxrInternal_v0_24__pxrReserved__::TfFunctionRef.37" = type { ptr, ptr }
%class.anon = type { ptr }

; Function Attrs: mustprogress nounwind uwtable
define internal void @"_ZN32pxrInternal_v0_24__pxrReserved__13TfFunctionRefIFvRKSt6vectorISt4pairINS_17SdfPathExpression2OpEiESaIS5_EEEEC2IZNKS3_4WalkENS0_IFvS4_iEEENS0_IFvRKNS3_19ExpressionReferenceEEEENS0_IFvRKNS_14SdfPathPatternEEEEE3$_0vEERT_"(ptr noundef nonnull align 8 dereferenceable(16) %0, ptr noundef nonnull align 8 dereferenceable(8) %1) unnamed_addr #2 align 2 {
  %3 = alloca ptr, align 8
  %4 = alloca ptr, align 8
  store ptr %0, ptr %3, align 8
  store ptr %1, ptr %4, align 8
  %5 = load ptr, ptr %3, align 8
  %6 = getelementptr inbounds nuw %"class.pxrInternal_v0_24__pxrReserved__::TfFunctionRef", ptr %5, i32 0, i32 0
  %7 = load ptr, ptr %4, align 8
  store ptr %7, ptr %6, align 8
  %8 = getelementptr inbounds nuw %"class.pxrInternal_v0_24__pxrReserved__::TfFunctionRef", ptr %5, i32 0, i32 1
  store ptr @"_ZN32pxrInternal_v0_24__pxrReserved__13TfFunctionRefIFvRKSt6vectorISt4pairINS_17SdfPathExpression2OpEiESaIS5_EEEE9_InvokeFnIZNKS3_4WalkENS0_IFvS4_iEEENS0_IFvRKNS3_19ExpressionReferenceEEEENS0_IFvRKNS_14SdfPathPatternEEEEE3$_0EEvPKvS9_", ptr %8, align 8
  ret void
}

; Function Attrs: mustprogress uwtable
define void @_ZNK32pxrInternal_v0_24__pxrReserved__17SdfPathExpression4WalkENS_13TfFunctionRefIFvNS0_2OpEiEEENS1_IFvRKNS0_19ExpressionReferenceEEEENS1_IFvRKNS_14SdfPathPatternEEEE(ptr noundef nonnull align 8 dereferenceable(104) %0, ptr %1, ptr %2, ptr %3, ptr %4, ptr noundef byval(%"class.pxrInternal_v0_24__pxrReserved__::TfFunctionRef.31") align 8 %5) #0 align 2 {
  %7 = alloca %"class.pxrInternal_v0_24__pxrReserved__::TfFunctionRef.37", align 8
  %8 = alloca %"class.pxrInternal_v0_24__pxrReserved__::TfFunctionRef.30", align 8
  %9 = alloca ptr, align 8
  %10 = alloca %class.anon, align 8
  %11 = alloca %"class.pxrInternal_v0_24__pxrReserved__::TfFunctionRef", align 8
  %12 = alloca %"class.pxrInternal_v0_24__pxrReserved__::TfFunctionRef.30", align 8
  %13 = alloca %"class.pxrInternal_v0_24__pxrReserved__::TfFunctionRef.31", align 8
  %14 = getelementptr inbounds nuw { ptr, ptr }, ptr %7, i32 0, i32 0
  store ptr %1, ptr %14, align 8
  %15 = getelementptr inbounds nuw { ptr, ptr }, ptr %7, i32 0, i32 1
  store ptr %2, ptr %15, align 8
  %16 = getelementptr inbounds nuw { ptr, ptr }, ptr %8, i32 0, i32 0
  store ptr %3, ptr %16, align 8
  %17 = getelementptr inbounds nuw { ptr, ptr }, ptr %8, i32 0, i32 1
  store ptr %4, ptr %17, align 8
  store ptr %0, ptr %9, align 8
  %18 = load ptr, ptr %9, align 8
  %19 = getelementptr inbounds nuw %class.anon, ptr %10, i32 0, i32 0
  store ptr %7, ptr %19, align 8
  call void @"_ZN32pxrInternal_v0_24__pxrReserved__13TfFunctionRefIFvRKSt6vectorISt4pairINS_17SdfPathExpression2OpEiESaIS5_EEEEC2IZNKS3_4WalkENS0_IFvS4_iEEENS0_IFvRKNS3_19ExpressionReferenceEEEENS0_IFvRKNS_14SdfPathPatternEEEEE3$_0vEERT_"(ptr noundef nonnull align 8 dereferenceable(16) %11, ptr noundef nonnull align 8 dereferenceable(8) %10) #3
  call void @llvm.memcpy.p0.p0.i64(ptr align 8 %12, ptr align 8 %8, i64 16, i1 false)
  call void @llvm.memcpy.p0.p0.i64(ptr align 8 %13, ptr align 8 %5, i64 16, i1 false)
  %20 = getelementptr inbounds nuw { ptr, ptr }, ptr %11, i32 0, i32 0
  %21 = load ptr, ptr %20, align 8
  %22 = getelementptr inbounds nuw { ptr, ptr }, ptr %11, i32 0, i32 1
  %23 = load ptr, ptr %22, align 8
  %24 = getelementptr inbounds nuw { ptr, ptr }, ptr %12, i32 0, i32 0
  %25 = load ptr, ptr %24, align 8
  %26 = getelementptr inbounds nuw { ptr, ptr }, ptr %12, i32 0, i32 1
  %27 = load ptr, ptr %26, align 8
  call void @_ZNK32pxrInternal_v0_24__pxrReserved__17SdfPathExpression15WalkWithOpStackENS_13TfFunctionRefIFvRKSt6vectorISt4pairINS0_2OpEiESaIS5_EEEEENS1_IFvRKNS0_19ExpressionReferenceEEEENS1_IFvRKNS_14SdfPathPatternEEEE(ptr noundef nonnull align 8 dereferenceable(104) %18, ptr %21, ptr %23, ptr %25, ptr %27, ptr noundef byval(%"class.pxrInternal_v0_24__pxrReserved__::TfFunctionRef.31") align 8 %13)
  ret void
}