; Function Attrs: mustprogress uwtable
define void @_ZNK32pxrInternal_v0_24__pxrReserved__17SdfPathExpression4WalkENS_13TfFunctionRefIFvNS0_2OpEiEEENS1_IFvRKNS0_19ExpressionReferenceEEEENS1_IFvRKNS_14SdfPathPatternEEEE(ptr nocapture noundef nonnull readonly align 8 dereferenceable(104) %0, ptr %1, ptr %2, ptr %3, ptr nocapture readonly %4, ptr nocapture noundef readonly byval(%"class.pxrInternal_v0_24__pxrReserved__::TfFunctionRef.31") align 8 %5) local_unnamed_addr #0 align 2 {
  %7 = alloca %"class.pxrInternal_v0_24__pxrReserved__::TfFunctionRef.37", align 8
  %8 = alloca %class.anon, align 8
  store ptr %1, ptr %7, align 8
  %9 = getelementptr inbounds nuw i8, ptr %7, i64 8
  store ptr %2, ptr %9, align 8
  store ptr %7, ptr %8, align 8
  call void @_ZNK32pxrInternal_v0_24__pxrReserved__17SdfPathExpression15WalkWithOpStackENS_13TfFunctionRefIFvRKSt6vectorISt4pairINS0_2OpEiESaIS5_EEEEENS1_IFvRKNS0_19ExpressionReferenceEEEENS1_IFvRKNS_14SdfPathPatternEEEE(ptr noundef nonnull align 8 dereferenceable(104) %0, ptr nonnull %8, ptr nonnull @"_ZN32pxrInternal_v0_24__pxrReserved__13TfFunctionRefIFvRKSt6vectorISt4pairINS_17SdfPathExpression2OpEiESaIS5_EEEE9_InvokeFnIZNKS3_4WalkENS0_IFvS4_iEEENS0_IFvRKNS3_19ExpressionReferenceEEEENS0_IFvRKNS_14SdfPathPatternEEEEE3$_0EEvPKvS9_", ptr %3, ptr %4, ptr noundef nonnull byval(%"class.pxrInternal_v0_24__pxrReserved__::TfFunctionRef.31") align 8 %5)
  ret void
}